target datalayout = "e-m:e-p270:32:32-p271:32:32-p272:64:64-i64:64-i128:128-f80:128-n8:16:32:64-S128"
target triple = "x86_64-pc-linux-gnu"

%"struct.duckdb::StringDictionaryContainer" = type { i32, i32 }
%"class.duckdb::BufferHandle" = type { %"class.duckdb::shared_ptr", %"class.duckdb::optional_ptr" }
%"class.duckdb::shared_ptr" = type { %"class.std::shared_ptr" }
%"class.std::shared_ptr" = type { %"class.std::__shared_ptr" }
%"class.std::__shared_ptr" = type { ptr, %"class.std::__shared_count" }
%"class.std::__shared_count" = type { ptr }
%"class.duckdb::optional_ptr" = type { ptr }
%"class.duckdb::SegmentBase" = type { i64, %"struct.std::atomic", %"struct.std::atomic.0", i64 }
%"struct.std::atomic" = type { %"struct.std::__atomic_base" }
%"struct.std::__atomic_base" = type { i64 }
%"struct.std::atomic.0" = type { %"struct.std::__atomic_base.1" }
%"struct.std::__atomic_base.1" = type { ptr }
%"struct.duckdb::CompressionState" = type { ptr, %"class.duckdb::CompressionInfo" }
%"class.duckdb::CompressionInfo" = type { i64 }
%"class.duckdb::DictionaryCompressionState" = type { %"struct.duckdb::CompressionState" }
%"struct.std::__detail::_Hash_node_base" = type { ptr }
%"struct.std::__detail::_Prime_rehash_policy" = type { float, i64 }
%"struct.duckdb::DictionaryCompressionCompressState" = type { %"class.duckdb::DictionaryCompressionState", ptr, ptr, %"class.duckdb::unique_ptr.56", %"class.duckdb::BufferHandle", %"struct.duckdb::StringDictionaryContainer", ptr, %"class.std::unordered_map", %"class.duckdb::vector", %"class.duckdb::vector", i8, i8, i32 }
%"class.duckdb::unique_ptr.56" = type { %"class.std::unique_ptr.57" }
%"class.std::unique_ptr.57" = type { %"struct.std::__uniq_ptr_data.58" }
%"struct.std::__uniq_ptr_data.58" = type { %"class.std::__uniq_ptr_impl.59" }
%"class.std::__uniq_ptr_impl.59" = type { %"class.std::tuple.60" }
%"class.std::tuple.60" = type { %"struct.std::_Tuple_impl.61" }
%"struct.std::_Tuple_impl.61" = type { %"struct.std::_Head_base.64" }
%"struct.std::_Head_base.64" = type { ptr }
%"class.std::unordered_map" = type { %"class.std::_Hashtable.65" }
%"class.std::_Hashtable.65" = type { ptr, i64, %"struct.std::__detail::_Hash_node_base", i64, %"struct.std::__detail::_Prime_rehash_policy", ptr }
%"class.duckdb::vector" = type { %"class.std::vector" }
%"class.std::vector" = type { %"struct.std::_Vector_base" }
%"struct.std::_Vector_base" = type { %"struct.std::_Vector_base<unsigned int, std::allocator<unsigned int>>::_Vector_impl" }
%"struct.std::_Vector_base<unsigned int, std::allocator<unsigned int>>::_Vector_impl" = type { %"struct.std::_Vector_base<unsigned int, std::allocator<unsigned int>>::_Vector_impl_data" }
%"struct.std::_Vector_base<unsigned int, std::allocator<unsigned int>>::_Vector_impl_data" = type { ptr, ptr, ptr }

; Function Attrs: mustprogress uwtable
define linkonce_odr noundef i64 @_ZN6duckdb11NumericCastImivEET_T0_(i32 noundef %0) #0 comdat {
  %2 = alloca i32, align 4
  store i32 %0, ptr %2, align 4, !tbaa !67
  %3 = load i32, ptr %2, align 4, !tbaa !67
  %4 = call noundef i64 @_ZN6duckdb15NumericCastImplImiLb0EE7ConvertEi(i32 noundef %3)
  ret i64 %4
}

; Function Attrs: inlinehint mustprogress uwtable
define linkonce_odr noundef i64 @_ZN6duckdb20BitpackingPrimitives27RoundUpToAlgorithmGroupSizeImEET_S2_(i64 noundef %0) #2 comdat align 2 {
  %2 = alloca i64, align 8
  %3 = alloca i64, align 8
  %4 = alloca i32, align 4
  %5 = alloca i32, align 4
  store i64 %0, ptr %3, align 8, !tbaa !3
  call void @llvm.lifetime.start.p0(i64 4, ptr %4) #19
  %6 = load i64, ptr %3, align 8, !tbaa !3
  %7 = urem i64 %6, 32
  %8 = trunc i64 %7 to i32
  store i32 %8, ptr %4, align 4, !tbaa !67
  %9 = load i32, ptr %4, align 4, !tbaa !67
  %10 = icmp eq i32 %9, 0
  br i1 %10, label %11, label %13

11:                                               ; preds = %1
  %12 = load i64, ptr %3, align 8, !tbaa !3
  store i64 %12, ptr %2, align 8
  store i32 1, ptr %5, align 4
  br label %19

13:                                               ; preds = %1
  %14 = load i64, ptr %3, align 8, !tbaa !3
  %15 = add i64 %14, 32
  %16 = load i32, ptr %4, align 4, !tbaa !67
  %17 = call noundef i64 @_ZN6duckdb11NumericCastImivEET_T0_(i32 noundef %16)
  %18 = sub i64 %15, %17
  store i64 %18, ptr %2, align 8
  store i32 1, ptr %5, align 4
  br label %19

19:                                               ; preds = %13, %11
  call void @llvm.lifetime.end.p0(i64 4, ptr %4) #19
  %20 = load i64, ptr %2, align 8
  ret i64 %20
}

; Function Attrs: mustprogress nounwind uwtable
define linkonce_odr noundef zeroext i8 @_ZN6duckdb20BitpackingPrimitives17GetEffectiveWidthImEEhh(i8 noundef zeroext %0) #3 comdat align 2 {
  %2 = alloca i8, align 1
  %3 = alloca i8, align 1
  %4 = alloca i8, align 1
  %5 = alloca i8, align 1
  %6 = alloca i32, align 4
  store i8 %0, ptr %3, align 1, !tbaa !7
  call void @llvm.lifetime.start.p0(i64 1, ptr %4) #19
  store i8 64, ptr %4, align 1, !tbaa !7
  call void @llvm.lifetime.start.p0(i64 1, ptr %5) #19
  store i8 8, ptr %5, align 1, !tbaa !7
  %7 = load i8, ptr %3, align 1, !tbaa !7
  %8 = zext i8 %7 to i32
  %9 = load i8, ptr %5, align 1, !tbaa !7
  %10 = zext i8 %9 to i32
  %11 = add nsw i32 %8, %10
  %12 = load i8, ptr %4, align 1, !tbaa !7
  %13 = zext i8 %12 to i32
  %14 = icmp sgt i32 %11, %13
  br i1 %14, label %15, label %17

15:                                               ; preds = %1
  %16 = load i8, ptr %4, align 1, !tbaa !7
  store i8 %16, ptr %2, align 1
  store i32 1, ptr %6, align 4
  br label %19

17:                                               ; preds = %1
  %18 = load i8, ptr %3, align 1, !tbaa !7
  store i8 %18, ptr %2, align 1
  store i32 1, ptr %6, align 4
  br label %19

19:                                               ; preds = %17, %15
  call void @llvm.lifetime.end.p0(i64 1, ptr %5) #19
  call void @llvm.lifetime.end.p0(i64 1, ptr %4) #19
  %20 = load i8, ptr %2, align 1
  ret i8 %20
}

; Function Attrs: inlinehint mustprogress uwtable
define linkonce_odr noundef i64 @_ZN6duckdb20BitpackingPrimitives15GetRequiredSizeEmh(i64 noundef %0, i8 noundef zeroext %1) #2 comdat align 2 {
  %3 = alloca i64, align 8
  %4 = alloca i8, align 1
  store i64 %0, ptr %3, align 8, !tbaa !3
  store i8 %1, ptr %4, align 1, !tbaa !7
  %5 = load i64, ptr %3, align 8, !tbaa !3
  %6 = call noundef i64 @_ZN6duckdb20BitpackingPrimitives27RoundUpToAlgorithmGroupSizeImEET_S2_(i64 noundef %5)
  store i64 %6, ptr %3, align 8, !tbaa !3
  %7 = load i64, ptr %3, align 8, !tbaa !3
  %8 = load i8, ptr %4, align 1, !tbaa !7
  %9 = zext i8 %8 to i64
  %10 = mul i64 %7, %9
  %11 = udiv i64 %10, 8
  ret i64 %11
}

; Function Attrs: mustprogress uwtable
define linkonce_odr noundef zeroext i8 @_ZN6duckdb20BitpackingPrimitives19FindMinimumBitWidthImLb0ELb0EEEhT_S2_(i64 noundef %0, i64 noundef %1) #0 comdat align 2 {
  %3 = alloca i8, align 1
  %4 = alloca i64, align 8
  %5 = alloca i64, align 8
  %6 = alloca i8, align 1
  %7 = alloca i64, align 8
  %8 = alloca i32, align 4
  store i64 %0, ptr %4, align 8, !tbaa !3
  store i64 %1, ptr %5, align 8, !tbaa !3
  call void @llvm.lifetime.start.p0(i64 1, ptr %6) #19
  call void @llvm.lifetime.start.p0(i64 8, ptr %7) #19
  %9 = load i64, ptr %5, align 8, !tbaa !3
  store i64 %9, ptr %7, align 8, !tbaa !3
  %10 = load i64, ptr %7, align 8, !tbaa !3
  %11 = icmp eq i64 %10, 0
  br i1 %11, label %12, label %13

12:                                               ; preds = %2
  store i8 0, ptr %3, align 1
  store i32 1, ptr %8, align 4
  br label %26

13:                                               ; preds = %2
  store i8 0, ptr %6, align 1, !tbaa !7
  br label %14

14:                                               ; preds = %17, %13
  %15 = load i64, ptr %7, align 8, !tbaa !3
  %16 = icmp ne i64 %15, 0
  br i1 %16, label %17, label %22

17:                                               ; preds = %14
  %18 = load i8, ptr %6, align 1, !tbaa !7
  %19 = add i8 %18, 1
  store i8 %19, ptr %6, align 1, !tbaa !7
  %20 = load i64, ptr %7, align 8, !tbaa !3
  %21 = lshr i64 %20, 1
  store i64 %21, ptr %7, align 8, !tbaa !3
  br label %14, !llvm.loop !547

22:                                               ; preds = %14
  %23 = load i8, ptr %6, align 1, !tbaa !7
  %24 = call noundef zeroext i8 @_ZN6duckdb20BitpackingPrimitives17GetEffectiveWidthImEEhh(i8 noundef zeroext %23)
  store i8 %24, ptr %6, align 1, !tbaa !7
  %25 = load i8, ptr %6, align 1, !tbaa !7
  store i8 %25, ptr %3, align 1
  store i32 1, ptr %8, align 4
  br label %26

26:                                               ; preds = %22, %12
  call void @llvm.lifetime.end.p0(i64 8, ptr %7) #19
  call void @llvm.lifetime.end.p0(i64 1, ptr %6) #19
  %27 = load i8, ptr %3, align 1
  ret i8 %27
}

; Function Attrs: mustprogress uwtable
define noundef i64 @_ZN6duckdb21DictionaryCompression13RequiredSpaceEmmmh(i64 noundef %0, i64 noundef %1, i64 noundef %2, i8 noundef zeroext %3) #0 align 2 {
  %5 = alloca i64, align 8
  %6 = alloca i64, align 8
  %7 = alloca i64, align 8
  %8 = alloca i8, align 1
  %9 = alloca i64, align 8
  %10 = alloca i64, align 8
  %11 = alloca i64, align 8
  %12 = alloca i64, align 8
  store i64 %0, ptr %5, align 8, !tbaa !3
  store i64 %1, ptr %6, align 8, !tbaa !3
  store i64 %2, ptr %7, align 8, !tbaa !3
  store i8 %3, ptr %8, align 1, !tbaa !7
  call void @llvm.lifetime.start.p0(i64 8, ptr %9) #19
  %13 = load i64, ptr %7, align 8, !tbaa !3
  %14 = add i64 20, %13
  store i64 %14, ptr %9, align 8, !tbaa !3
  call void @llvm.lifetime.start.p0(i64 8, ptr %10) #19
  %15 = load i64, ptr %5, align 8, !tbaa !3
  %16 = load i8, ptr %8, align 1, !tbaa !7
  %17 = call noundef i64 @_ZN6duckdb20BitpackingPrimitives15GetRequiredSizeEmh(i64 noundef %15, i8 noundef zeroext %16)
  store i64 %17, ptr %10, align 8, !tbaa !3
  call void @llvm.lifetime.start.p0(i64 8, ptr %11) #19
  %18 = load i64, ptr %6, align 8, !tbaa !3
  %19 = mul i64 %18, 4
  store i64 %19, ptr %11, align 8, !tbaa !3
  call void @llvm.lifetime.start.p0(i64 8, ptr %12) #19
  %20 = load i64, ptr %9, align 8, !tbaa !3
  %21 = load i64, ptr %11, align 8, !tbaa !3
  %22 = add i64 %20, %21
  %23 = load i64, ptr %10, align 8, !tbaa !3
  %24 = add i64 %22, %23
  store i64 %24, ptr %12, align 8, !tbaa !3
  %25 = load i64, ptr %12, align 8, !tbaa !3
  call void @llvm.lifetime.end.p0(i64 8, ptr %12) #19
  call void @llvm.lifetime.end.p0(i64 8, ptr %11) #19
  call void @llvm.lifetime.end.p0(i64 8, ptr %10) #19
  call void @llvm.lifetime.end.p0(i64 8, ptr %9) #19
  ret i64 %25
}

; Function Attrs: noinline noreturn nounwind uwtable
define linkonce_odr hidden void @__clang_call_terminate(ptr noundef %0) #12 comdat {
  %2 = call ptr @__cxa_begin_catch(ptr %0) #19
  call void @_ZSt9terminatev() #20
  unreachable
}

; Function Attrs: mustprogress nounwind uwtable
define linkonce_odr noundef i32 @_ZStanSt12memory_orderSt23__memory_order_modifier(i32 noundef %0, i32 noundef %1) #3 comdat {
  %3 = alloca i32, align 4
  %4 = alloca i32, align 4
  store i32 %0, ptr %3, align 4, !tbaa !235
  store i32 %1, ptr %4, align 4, !tbaa !494
  %5 = load i32, ptr %3, align 4, !tbaa !235
  %6 = load i32, ptr %4, align 4, !tbaa !494
  %7 = and i32 %5, %6
  ret i32 %7
}

; Function Attrs: inlinehint mustprogress uwtable
define linkonce_odr noundef zeroext i8 @_ZN6duckdb20BitpackingPrimitives15MinimumBitWidthImLb0EEEhT_(i64 noundef %0) #2 comdat align 2 {
  %2 = alloca i64, align 8
  store i64 %0, ptr %2, align 8, !tbaa !3
  %3 = load i64, ptr %2, align 8, !tbaa !3
  %4 = load i64, ptr %2, align 8, !tbaa !3
  %5 = call noundef zeroext i8 @_ZN6duckdb20BitpackingPrimitives19FindMinimumBitWidthImLb0ELb0EEEhT_S2_(i64 noundef %3, i64 noundef %4)
  ret i8 %5
}

; Function Attrs: mustprogress uwtable
define noundef zeroext i1 @_ZN6duckdb21DictionaryCompression14HasEnoughSpaceEmmmhm(i64 noundef %0, i64 noundef %1, i64 noundef %2, i8 noundef zeroext %3, i64 noundef %4) #0 align 2 {
  %6 = alloca i64, align 8
  %7 = alloca i64, align 8
  %8 = alloca i64, align 8
  %9 = alloca i8, align 1
  %10 = alloca i64, align 8
  store i64 %0, ptr %6, align 8, !tbaa !3
  store i64 %1, ptr %7, align 8, !tbaa !3
  store i64 %2, ptr %8, align 8, !tbaa !3
  store i8 %3, ptr %9, align 1, !tbaa !7
  store i64 %4, ptr %10, align 8, !tbaa !3
  %11 = load i64, ptr %6, align 8, !tbaa !3
  %12 = load i64, ptr %7, align 8, !tbaa !3
  %13 = load i64, ptr %8, align 8, !tbaa !3
  %14 = load i8, ptr %9, align 1, !tbaa !7
  %15 = call noundef i64 @_ZN6duckdb21DictionaryCompression13RequiredSpaceEmmmh(i64 noundef %11, i64 noundef %12, i64 noundef %13, i8 noundef zeroext %14)
  %16 = load i64, ptr %10, align 8, !tbaa !3
  %17 = icmp ule i64 %15, %16
  ret i1 %17
}

; Function Attrs: mustprogress nounwind uwtable
define linkonce_odr noundef i64 @_ZNK6duckdb15CompressionInfo12GetBlockSizeEv(ptr noundef nonnull align 8 dereferenceable(8) %0) #3 comdat align 2 {
  %2 = alloca ptr, align 8
  store ptr %0, ptr %2, align 8, !tbaa !72
  %3 = load ptr, ptr %2, align 8
  %4 = getelementptr inbounds nuw %"class.duckdb::CompressionInfo", ptr %3, i32 0, i32 0
  %5 = load i64, ptr %4, align 8, !tbaa !112
  ret i64 %5
}

; Function Attrs: mustprogress nounwind uwtable
define linkonce_odr noundef i64 @_ZNKSt6vectorIjSaIjEE4sizeEv(ptr noundef nonnull align 8 dereferenceable(24) %0) #3 comdat align 2 {
  %2 = alloca ptr, align 8
  store ptr %0, ptr %2, align 8, !tbaa !205
  %3 = load ptr, ptr %2, align 8
  %4 = getelementptr inbounds nuw %"struct.std::_Vector_base", ptr %3, i32 0, i32 0
  %5 = getelementptr inbounds nuw %"struct.std::_Vector_base<unsigned int, std::allocator<unsigned int>>::_Vector_impl_data", ptr %4, i32 0, i32 1
  %6 = load ptr, ptr %5, align 8, !tbaa !208
  %7 = getelementptr inbounds nuw %"struct.std::_Vector_base", ptr %3, i32 0, i32 0
  %8 = getelementptr inbounds nuw %"struct.std::_Vector_base<unsigned int, std::allocator<unsigned int>>::_Vector_impl_data", ptr %7, i32 0, i32 0
  %9 = load ptr, ptr %8, align 8, !tbaa !207
  %10 = ptrtoint ptr %6 to i64
  %11 = ptrtoint ptr %9 to i64
  %12 = sub i64 %10, %11
  %13 = sdiv exact i64 %12, 4
  ret i64 %13
}

; Function Attrs: alwaysinline mustprogress nounwind uwtable
define linkonce_odr noundef i64 @_ZNKSt13__atomic_baseImE4loadESt12memory_order(ptr noundef nonnull align 8 dereferenceable(8) %0, i32 noundef %1) #9 comdat align 2 personality ptr @__gxx_personality_v0 {
  %3 = alloca ptr, align 8
  %4 = alloca i32, align 4
  %5 = alloca i32, align 4
  %6 = alloca i64, align 8
  store ptr %0, ptr %3, align 8, !tbaa !233
  store i32 %1, ptr %4, align 4, !tbaa !235
  %7 = load ptr, ptr %3, align 8
  call void @llvm.lifetime.start.p0(i64 4, ptr %5) #19
  %8 = load i32, ptr %4, align 4, !tbaa !235
  %9 = invoke noundef i32 @_ZStanSt12memory_orderSt23__memory_order_modifier(i32 noundef %8, i32 noundef 65535)
          to label %10 unwind label %27

10:                                               ; preds = %2
  store i32 %9, ptr %5, align 4, !tbaa !235
  br label %11

11:                                               ; preds = %10
  br label %12

12:                                               ; preds = %11
  br label %13

13:                                               ; preds = %12
  br label %14

14:                                               ; preds = %13
  br label %15

15:                                               ; preds = %14
  br label %16

16:                                               ; preds = %15
  %17 = getelementptr inbounds nuw %"struct.std::__atomic_base", ptr %7, i32 0, i32 0
  %18 = load i32, ptr %4, align 4, !tbaa !235
  switch i32 %18, label %19 [
    i32 1, label %21
    i32 2, label %21
    i32 5, label %23
  ]

19:                                               ; preds = %16
  %20 = load atomic i64, ptr %17 monotonic, align 8
  store i64 %20, ptr %6, align 8
  br label %25

21:                                               ; preds = %16, %16
  %22 = load atomic i64, ptr %17 acquire, align 8
  store i64 %22, ptr %6, align 8
  br label %25

23:                                               ; preds = %16
  %24 = load atomic i64, ptr %17 seq_cst, align 8
  store i64 %24, ptr %6, align 8
  br label %25

25:                                               ; preds = %23, %21, %19
  %26 = load i64, ptr %6, align 8, !tbaa !3
  call void @llvm.lifetime.end.p0(i64 4, ptr %5) #19
  ret i64 %26

27:                                               ; preds = %2
  %28 = landingpad { ptr, i32 }
          catch ptr null
  %29 = extractvalue { ptr, i32 } %28, 0
  call void @__clang_call_terminate(ptr %29) #20
  unreachable
}

; Function Attrs: mustprogress uwtable
define noundef zeroext i1 @_ZN6duckdb34DictionaryCompressionCompressState26CalculateSpaceRequirementsEbm(ptr noundef nonnull align 8 dereferenceable(192) %0, i1 noundef zeroext %1, i64 noundef %2) unnamed_addr #0 align 2 {
  %4 = alloca i1, align 1
  %5 = alloca ptr, align 8
  %6 = alloca i8, align 1
  %7 = alloca i64, align 8
  store ptr %0, ptr %5, align 8, !tbaa !159
  %8 = zext i1 %1 to i8
  store i8 %8, ptr %6, align 1, !tbaa !98
  store i64 %2, ptr %7, align 8, !tbaa !3
  %9 = load ptr, ptr %5, align 8
  %10 = load i8, ptr %6, align 1, !tbaa !98, !range !99, !noundef !100
  %11 = trunc i8 %10 to i1
  br i1 %11, label %29, label %12

12:                                               ; preds = %3
  %13 = getelementptr inbounds nuw %"struct.duckdb::DictionaryCompressionCompressState", ptr %9, i32 0, i32 3
  %14 = call noundef ptr @_ZNK6duckdb10unique_ptrINS_13ColumnSegmentESt14default_deleteIS1_ELb1EEptEv(ptr noundef nonnull align 8 dereferenceable(8) %13)
  %15 = getelementptr inbounds nuw %"class.duckdb::SegmentBase", ptr %14, i32 0, i32 1
  %16 = call noundef i64 @_ZNKSt13__atomic_baseImE4loadESt12memory_order(ptr noundef nonnull align 8 dereferenceable(8) %15, i32 noundef 5) #19
  %17 = add i64 %16, 1
  %18 = getelementptr inbounds nuw %"struct.duckdb::DictionaryCompressionCompressState", ptr %9, i32 0, i32 8
  %19 = call noundef i64 @_ZNKSt6vectorIjSaIjEE4sizeEv(ptr noundef nonnull align 8 dereferenceable(24) %18) #19
  %20 = getelementptr inbounds nuw %"struct.duckdb::DictionaryCompressionCompressState", ptr %9, i32 0, i32 5
  %21 = getelementptr inbounds nuw %"struct.duckdb::StringDictionaryContainer", ptr %20, i32 0, i32 0
  %22 = load i32, ptr %21, align 8, !tbaa !226
  %23 = zext i32 %22 to i64
  %24 = getelementptr inbounds nuw %"struct.duckdb::DictionaryCompressionCompressState", ptr %9, i32 0, i32 10
  %25 = load i8, ptr %24, align 8, !tbaa !183
  %26 = getelementptr inbounds nuw %"struct.duckdb::CompressionState", ptr %9, i32 0, i32 1
  %27 = call noundef i64 @_ZNK6duckdb15CompressionInfo12GetBlockSizeEv(ptr noundef nonnull align 8 dereferenceable(8) %26)
  %28 = call noundef zeroext i1 @_ZN6duckdb21DictionaryCompression14HasEnoughSpaceEmmmhm(i64 noundef %17, i64 noundef %19, i64 noundef %23, i8 noundef zeroext %25, i64 noundef %27)
  store i1 %28, ptr %4, align 1
  br label %58

29:                                               ; preds = %3
  %30 = getelementptr inbounds nuw %"struct.duckdb::DictionaryCompressionCompressState", ptr %9, i32 0, i32 8
  %31 = call noundef i64 @_ZNKSt6vectorIjSaIjEE4sizeEv(ptr noundef nonnull align 8 dereferenceable(24) %30) #19
  %32 = sub i64 %31, 1
  %33 = load i8, ptr %6, align 1, !tbaa !98, !range !99, !noundef !100
  %34 = trunc i8 %33 to i1
  %35 = zext i1 %34 to i64
  %36 = add i64 %32, %35
  %37 = call noundef zeroext i8 @_ZN6duckdb20BitpackingPrimitives15MinimumBitWidthImLb0EEEhT_(i64 noundef %36)
  %38 = getelementptr inbounds nuw %"struct.duckdb::DictionaryCompressionCompressState", ptr %9, i32 0, i32 11
  store i8 %37, ptr %38, align 1, !tbaa !184
  %39 = getelementptr inbounds nuw %"struct.duckdb::DictionaryCompressionCompressState", ptr %9, i32 0, i32 3
  %40 = call noundef ptr @_ZNK6duckdb10unique_ptrINS_13ColumnSegmentESt14default_deleteIS1_ELb1EEptEv(ptr noundef nonnull align 8 dereferenceable(8) %39)
  %41 = getelementptr inbounds nuw %"class.duckdb::SegmentBase", ptr %40, i32 0, i32 1
  %42 = call noundef i64 @_ZNKSt13__atomic_baseImE4loadESt12memory_order(ptr noundef nonnull align 8 dereferenceable(8) %41, i32 noundef 5) #19
  %43 = add i64 %42, 1
  %44 = getelementptr inbounds nuw %"struct.duckdb::DictionaryCompressionCompressState", ptr %9, i32 0, i32 8
  %45 = call noundef i64 @_ZNKSt6vectorIjSaIjEE4sizeEv(ptr noundef nonnull align 8 dereferenceable(24) %44) #19
  %46 = add i64 %45, 1
  %47 = getelementptr inbounds nuw %"struct.duckdb::DictionaryCompressionCompressState", ptr %9, i32 0, i32 5
  %48 = getelementptr inbounds nuw %"struct.duckdb::StringDictionaryContainer", ptr %47, i32 0, i32 0
  %49 = load i32, ptr %48, align 8, !tbaa !226
  %50 = zext i32 %49 to i64
  %51 = load i64, ptr %7, align 8, !tbaa !3
  %52 = add i64 %50, %51
  %53 = getelementptr inbounds nuw %"struct.duckdb::DictionaryCompressionCompressState", ptr %9, i32 0, i32 11
  %54 = load i8, ptr %53, align 1, !tbaa !184
  %55 = getelementptr inbounds nuw %"struct.duckdb::CompressionState", ptr %9, i32 0, i32 1
  %56 = call noundef i64 @_ZNK6duckdb15CompressionInfo12GetBlockSizeEv(ptr noundef nonnull align 8 dereferenceable(8) %55)
  %57 = call noundef zeroext i1 @_ZN6duckdb21DictionaryCompression14HasEnoughSpaceEmmmhm(i64 noundef %43, i64 noundef %46, i64 noundef %52, i8 noundef zeroext %54, i64 noundef %56)
  store i1 %57, ptr %4, align 1
  br label %58

58:                                               ; preds = %29, %12
  %59 = load i1, ptr %4, align 1
  ret i1 %59
}