; Function Attrs: mustprogress uwtable
define noundef zeroext i1 @_ZN6duckdb34DictionaryCompressionCompressState26CalculateSpaceRequirementsEbm(ptr noundef nonnull align 8 dereferenceable(192) %0, i1 noundef zeroext %1, i64 noundef %2) unnamed_addr #0 align 2 personality ptr @__gxx_personality_v0 {
  br i1 %1, label %38, label %4

4:                                                ; preds = %3
  %5 = getelementptr inbounds nuw i8, ptr %0, i64 32
  %6 = tail call noundef ptr @_ZNK6duckdb10unique_ptrINS_13ColumnSegmentESt14default_deleteIS1_ELb1EEptEv(ptr noundef nonnull align 8 dereferenceable(8) %5)
  %7 = getelementptr inbounds nuw i8, ptr %6, i64 8
  %8 = load atomic i64, ptr %7 seq_cst, align 8
  %9 = add i64 %8, 1
  %10 = getelementptr inbounds nuw i8, ptr %0, i64 136
  %11 = getelementptr inbounds nuw i8, ptr %0, i64 144
  %12 = load ptr, ptr %11, align 8, !tbaa !174
  %13 = load ptr, ptr %10, align 8, !tbaa !169
  %14 = ptrtoint ptr %12 to i64
  %15 = ptrtoint ptr %13 to i64
  %16 = getelementptr inbounds nuw i8, ptr %0, i64 64
  %17 = load i32, ptr %16, align 8, !tbaa !184
  %18 = zext i32 %17 to i64
  %19 = getelementptr inbounds nuw i8, ptr %0, i64 184
  %20 = load i8, ptr %19, align 8, !tbaa !176
  %21 = getelementptr inbounds nuw i8, ptr %0, i64 8
  %22 = load i64, ptr %21, align 8, !tbaa !84
  %23 = trunc i64 %9 to i32
  %24 = and i32 %23, 31
  %25 = icmp eq i32 %24, 0
  br i1 %25, label %_ZN6duckdb21DictionaryCompression14HasEnoughSpaceEmmmhm.exit, label %26

26:                                               ; preds = %4
  %27 = add i64 %8, 33
  %28 = tail call noundef i64 @_ZN6duckdb15NumericCastImplImiLb0EE7ConvertEi(i32 noundef %24)
  %29 = sub i64 %27, %28
  br label %_ZN6duckdb21DictionaryCompression14HasEnoughSpaceEmmmhm.exit

_ZN6duckdb21DictionaryCompression14HasEnoughSpaceEmmmhm.exit: ; preds = %4, %26
  %.0.i.i.i.i = phi i64 [ %29, %26 ], [ %9, %4 ]
  %30 = zext i8 %20 to i64
  %31 = mul i64 %.0.i.i.i.i, %30
  %32 = lshr i64 %31, 3
  %33 = add i64 %14, 20
  %34 = sub i64 %33, %15
  %35 = add i64 %34, %18
  %36 = add i64 %35, %32
  %37 = icmp ule i64 %36, %22
  br label %84

38:                                               ; preds = %3
  %39 = getelementptr inbounds nuw i8, ptr %0, i64 136
  %40 = getelementptr inbounds nuw i8, ptr %0, i64 144
  %41 = load ptr, ptr %40, align 8, !tbaa !174
  %42 = load ptr, ptr %39, align 8, !tbaa !169
  %43 = icmp eq ptr %41, %42
  br i1 %43, label %_ZN6duckdb20BitpackingPrimitives15MinimumBitWidthImLb0EEEhT_.exit, label %.preheader.preheader.i.i

.preheader.preheader.i.i:                         ; preds = %38
  %44 = ptrtoint ptr %42 to i64
  %45 = ptrtoint ptr %41 to i64
  %46 = sub i64 %45, %44
  %47 = ashr exact i64 %46, 2
  %48 = tail call range(i64 0, 65) i64 @llvm.ctlz.i64(i64 %47, i1 true)
  %49 = trunc nuw nsw i64 %48 to i8
  %50 = sub nuw nsw i8 64, %49
  %51 = icmp ugt i64 %47, 72057594037927935
  %..i.i.i = select i1 %51, i8 64, i8 %50
  br label %_ZN6duckdb20BitpackingPrimitives15MinimumBitWidthImLb0EEEhT_.exit

_ZN6duckdb20BitpackingPrimitives15MinimumBitWidthImLb0EEEhT_.exit: ; preds = %38, %.preheader.preheader.i.i
  %.09.i.i = phi i8 [ %..i.i.i, %.preheader.preheader.i.i ], [ 0, %38 ]
  %52 = getelementptr inbounds nuw i8, ptr %0, i64 185
  store i8 %.09.i.i, ptr %52, align 1, !tbaa !177
  %53 = getelementptr inbounds nuw i8, ptr %0, i64 32
  %54 = tail call noundef ptr @_ZNK6duckdb10unique_ptrINS_13ColumnSegmentESt14default_deleteIS1_ELb1EEptEv(ptr noundef nonnull align 8 dereferenceable(8) %53)
  %55 = getelementptr inbounds nuw i8, ptr %54, i64 8
  %56 = load atomic i64, ptr %55 seq_cst, align 8
  %57 = add i64 %56, 1
  %58 = load ptr, ptr %40, align 8, !tbaa !174
  %59 = load ptr, ptr %39, align 8, !tbaa !169
  %60 = ptrtoint ptr %58 to i64
  %61 = ptrtoint ptr %59 to i64
  %62 = getelementptr inbounds nuw i8, ptr %0, i64 64
  %63 = load i32, ptr %62, align 8, !tbaa !184
  %64 = zext i32 %63 to i64
  %65 = load i8, ptr %52, align 1, !tbaa !177
  %66 = getelementptr inbounds nuw i8, ptr %0, i64 8
  %67 = load i64, ptr %66, align 8, !tbaa !84
  %68 = trunc i64 %57 to i32
  %69 = and i32 %68, 31
  %70 = icmp eq i32 %69, 0
  br i1 %70, label %_ZN6duckdb21DictionaryCompression14HasEnoughSpaceEmmmhm.exit6, label %71

71:                                               ; preds = %_ZN6duckdb20BitpackingPrimitives15MinimumBitWidthImLb0EEEhT_.exit
  %72 = add i64 %56, 33
  %73 = tail call noundef i64 @_ZN6duckdb15NumericCastImplImiLb0EE7ConvertEi(i32 noundef %69)
  %74 = sub i64 %72, %73
  br label %_ZN6duckdb21DictionaryCompression14HasEnoughSpaceEmmmhm.exit6

_ZN6duckdb21DictionaryCompression14HasEnoughSpaceEmmmhm.exit6: ; preds = %_ZN6duckdb20BitpackingPrimitives15MinimumBitWidthImLb0EEEhT_.exit, %71
  %.0.i.i.i.i5 = phi i64 [ %74, %71 ], [ %57, %_ZN6duckdb20BitpackingPrimitives15MinimumBitWidthImLb0EEEhT_.exit ]
  %75 = zext i8 %65 to i64
  %76 = mul i64 %.0.i.i.i.i5, %75
  %77 = lshr i64 %76, 3
  %78 = add i64 %2, 24
  %79 = add i64 %78, %60
  %80 = sub i64 %79, %61
  %81 = add i64 %80, %64
  %82 = add i64 %81, %77
  %83 = icmp ule i64 %82, %67
  br label %84

84:                                               ; preds = %_ZN6duckdb21DictionaryCompression14HasEnoughSpaceEmmmhm.exit6, %_ZN6duckdb21DictionaryCompression14HasEnoughSpaceEmmmhm.exit
  %.0 = phi i1 [ %83, %_ZN6duckdb21DictionaryCompression14HasEnoughSpaceEmmmhm.exit6 ], [ %37, %_ZN6duckdb21DictionaryCompression14HasEnoughSpaceEmmmhm.exit ]
  ret i1 %.0
}